#include <math.h>
#include <stdio.h>
#include <stdlib.h>
#include <string.h>

int main(){
 int n;
char m[10000][256];
scanf("%d",&n);
for (int j=0;j<n;j++){ 
        scanf("%s",m[j]); }
for(int j=0;j<n;j++){                       
        for(int i=0;i<strlen(m[j]);i++){
        if(m[j][i]=='A')m[j][i]='T';
        else if(m[j][i]=='T')m[j][i]='A';
        else if(m[j][i]=='G')m[j][i]='C';
        else if(m[j][i]=='C')m[j][i]='G';
        printf("%c",m[j][i]);}
        printf("\n");}
   

return 0;
}